; Function Attrs: nounwind uwtable
define noundef i32 @pmix_mca_base_components_close(i32 noundef %0, ptr noundef %1, ptr noundef readnone captures(address) %2) local_unnamed_addr #0 {
  %4 = getelementptr inbounds nuw i8, ptr %1, i64 120
  %5 = getelementptr inbounds nuw i8, ptr %1, i64 240
  %6 = load ptr, ptr %5, align 8, !tbaa !23
  %.not24 = icmp eq ptr %6, %4
  br i1 %.not24, label %._crit_edge, label %.lr.ph

.lr.ph:                                           ; preds = %3
  %7 = getelementptr inbounds nuw i8, ptr %1, i64 264
  br label %8

8:                                                ; preds = %.lr.ph, %43
  %.025 = phi ptr [ %6, %.lr.ph ], [ %.01827, %43 ]
  %.018.in26 = getelementptr inbounds nuw i8, ptr %.025, i64 120
  %.01827 = load ptr, ptr %.018.in26, align 8, !tbaa !24
  %9 = getelementptr inbounds nuw i8, ptr %.025, i64 144
  %10 = load ptr, ptr %9, align 8, !tbaa !25
  %11 = icmp eq ptr %2, %10
  br i1 %11, label %43, label %12

12:                                               ; preds = %8
  tail call void @pmix_mca_base_component_close(ptr noundef %10, i32 noundef %0)
  %13 = load ptr, ptr %.018.in26, align 8, !tbaa !24
  %14 = getelementptr inbounds nuw i8, ptr %.025, i64 128
  %15 = load ptr, ptr %14, align 8, !tbaa !28
  %16 = getelementptr inbounds nuw i8, ptr %15, i64 120
  store volatile ptr %13, ptr %16, align 8, !tbaa !24
  %17 = getelementptr inbounds nuw i8, ptr %13, i64 128
  store volatile ptr %15, ptr %17, align 8, !tbaa !28
  %18 = load volatile i64, ptr %7, align 8, !tbaa !29
  %19 = add i64 %18, -1
  store volatile i64 %19, ptr %7, align 8, !tbaa !29
  %20 = tail call i32 @pthread_mutex_lock(ptr noundef nonnull %.025) #7
  %21 = icmp eq i32 %20, 35
  br i1 %21, label %22, label %pmix_obj_update.exit

22:                                               ; preds = %12
  %23 = tail call ptr @__errno_location() #8
  store i32 35, ptr %23, align 4, !tbaa !30
  tail call void @perror(ptr noundef nonnull @.str.2) #9
  tail call void @abort() #10
  unreachable

pmix_obj_update.exit:                             ; preds = %12
  %24 = getelementptr inbounds nuw i8, ptr %.025, i64 48
  %25 = load i32, ptr %24, align 8, !tbaa !31
  %26 = add nsw i32 %25, -1
  store i32 %26, ptr %24, align 8, !tbaa !31
  %27 = tail call i32 @pthread_mutex_unlock(ptr noundef nonnull %.025) #7
  %28 = icmp eq i32 %26, 0
  br i1 %28, label %29, label %43

29:                                               ; preds = %pmix_obj_update.exit
  %30 = getelementptr inbounds nuw i8, ptr %.025, i64 40
  %31 = load ptr, ptr %30, align 8, !tbaa !32
  %32 = getelementptr inbounds nuw i8, ptr %31, i64 48
  %33 = load ptr, ptr %32, align 8, !tbaa !33
  %34 = load ptr, ptr %33, align 8, !tbaa !35
  %.not6.i = icmp eq ptr %34, null
  br i1 %.not6.i, label %pmix_obj_run_destructors.exit, label %.lr.ph.i

.lr.ph.i:                                         ; preds = %29, %.lr.ph.i
  %35 = phi ptr [ %37, %.lr.ph.i ], [ %34, %29 ]
  %.07.i = phi ptr [ %36, %.lr.ph.i ], [ %33, %29 ]
  tail call void %35(ptr noundef nonnull %.025) #7
  %36 = getelementptr inbounds nuw i8, ptr %.07.i, i64 8
  %37 = load ptr, ptr %36, align 8, !tbaa !35
  %.not.i = icmp eq ptr %37, null
  br i1 %.not.i, label %pmix_obj_run_destructors.exit, label %.lr.ph.i, !llvm.loop !36

pmix_obj_run_destructors.exit:                    ; preds = %.lr.ph.i, %29
  %38 = getelementptr inbounds nuw i8, ptr %.025, i64 96
  %39 = load ptr, ptr %38, align 8, !tbaa !38
  %.not20 = icmp eq ptr %39, null
  br i1 %.not20, label %42, label %40

40:                                               ; preds = %pmix_obj_run_destructors.exit
  %41 = getelementptr inbounds nuw i8, ptr %.025, i64 56
  tail call void %39(ptr noundef nonnull %41, ptr noundef nonnull %.025) #7
  br label %43

42:                                               ; preds = %pmix_obj_run_destructors.exit
  tail call void @free(ptr noundef nonnull %.025) #7
  br label %43

43:                                               ; preds = %pmix_obj_update.exit, %42, %40, %8
  %.not = icmp eq ptr %.01827, %4
  br i1 %.not, label %._crit_edge, label %8, !llvm.loop !39

._crit_edge:                                      ; preds = %43, %3
  ret i32 0
}